; Function Attrs: nounwind uwtable
define internal fastcc void @Vec_VecPush(ptr noundef captures(none) %0, i32 noundef %1, ptr noundef %2) unnamed_addr #3 {
  %4 = getelementptr inbounds nuw i8, ptr %0, i64 4
  %5 = load i32, ptr %4, align 4
  %6 = add i32 %1, 1
  %.not = icmp sgt i32 %5, %1
  br i1 %.not, label %26, label %7

7:                                                ; preds = %3
  %8 = load i32, ptr %0, align 8
  %.not.i.not = icmp sgt i32 %8, %1
  br i1 %.not.i.not, label %Vec_PtrGrow.exit, label %9

9:                                                ; preds = %7
  %10 = getelementptr inbounds nuw i8, ptr %0, i64 8
  %11 = load ptr, ptr %10, align 8
  %.not9.i = icmp eq ptr %11, null
  %12 = sext i32 %6 to i64
  %13 = shl nsw i64 %12, 3
  br i1 %.not9.i, label %16, label %14

14:                                               ; preds = %9
  %15 = tail call ptr @realloc(ptr noundef nonnull %11, i64 noundef %13) #19
  %.pre.pre = load i32, ptr %4, align 4
  br label %18

16:                                               ; preds = %9
  %17 = tail call noalias ptr @malloc(i64 noundef %13) #20
  br label %18

18:                                               ; preds = %16, %14
  %.pre = phi i32 [ %.pre.pre, %14 ], [ %5, %16 ]
  %19 = phi ptr [ %15, %14 ], [ %17, %16 ]
  store ptr %19, ptr %10, align 8
  store i32 %6, ptr %0, align 8
  br label %Vec_PtrGrow.exit

Vec_PtrGrow.exit:                                 ; preds = %7, %18
  %20 = phi i32 [ %5, %7 ], [ %.pre, %18 ]
  %.not1516 = icmp sgt i32 %20, %1
  br i1 %.not1516, label %._crit_edge, label %.lr.ph

.lr.ph:                                           ; preds = %Vec_PtrGrow.exit
  %21 = getelementptr inbounds nuw i8, ptr %0, i64 8
  %22 = sext i32 %20 to i64
  br label %23

23:                                               ; preds = %.lr.ph, %23
  %indvars.iv = phi i64 [ %22, %.lr.ph ], [ %indvars.iv.next, %23 ]
  %calloc = tail call dereferenceable_or_null(16) ptr @calloc(i64 1, i64 16)
  %24 = load ptr, ptr %21, align 8
  %25 = getelementptr inbounds ptr, ptr %24, i64 %indvars.iv
  store ptr %calloc, ptr %25, align 8
  %indvars.iv.next = add nsw i64 %indvars.iv, 1
  %lftr.wideiv = trunc i64 %indvars.iv.next to i32
  %exitcond.not = icmp eq i32 %6, %lftr.wideiv
  br i1 %exitcond.not, label %._crit_edge, label %23, !llvm.loop !52

._crit_edge:                                      ; preds = %23, %Vec_PtrGrow.exit
  store i32 %6, ptr %4, align 4
  br label %26

26:                                               ; preds = %._crit_edge, %3
  %27 = getelementptr i8, ptr %0, i64 8
  %.val = load ptr, ptr %27, align 8
  %28 = sext i32 %1 to i64
  %29 = getelementptr inbounds ptr, ptr %.val, i64 %28
  %30 = load ptr, ptr %29, align 8
  %31 = getelementptr inbounds nuw i8, ptr %30, i64 4
  %32 = load i32, ptr %31, align 4
  %33 = load i32, ptr %30, align 8
  %34 = icmp eq i32 %32, %33
  br i1 %34, label %35, label %.Vec_PtrGrow.exit11_crit_edge.i

.Vec_PtrGrow.exit11_crit_edge.i:                  ; preds = %26
  %.phi.trans.insert.i = getelementptr inbounds nuw i8, ptr %30, i64 8
  %.pre.i = load ptr, ptr %.phi.trans.insert.i, align 8
  br label %Vec_PtrPush.exit

35:                                               ; preds = %26
  %36 = icmp slt i32 %32, 16
  br i1 %36, label %37, label %45

37:                                               ; preds = %35
  %38 = getelementptr inbounds nuw i8, ptr %30, i64 8
  %39 = load ptr, ptr %38, align 8
  %.not9.i.i = icmp eq ptr %39, null
  br i1 %.not9.i.i, label %42, label %40

40:                                               ; preds = %37
  %41 = tail call dereferenceable_or_null(128) ptr @realloc(ptr noundef nonnull %39, i64 noundef 128) #19
  br label %Vec_PtrGrow.exit.i

42:                                               ; preds = %37
  %43 = tail call noalias dereferenceable_or_null(128) ptr @malloc(i64 noundef 128) #20
  br label %Vec_PtrGrow.exit.i

Vec_PtrGrow.exit.i:                               ; preds = %42, %40
  %44 = phi ptr [ %41, %40 ], [ %43, %42 ]
  store ptr %44, ptr %38, align 8
  store i32 16, ptr %30, align 8
  br label %Vec_PtrPush.exit

45:                                               ; preds = %35
  %46 = shl nuw nsw i32 %32, 1
  %47 = getelementptr inbounds nuw i8, ptr %30, i64 8
  %48 = load ptr, ptr %47, align 8
  %.not9.i10.i = icmp eq ptr %48, null
  %49 = zext nneg i32 %46 to i64
  %50 = shl nuw nsw i64 %49, 3
  br i1 %.not9.i10.i, label %53, label %51

51:                                               ; preds = %45
  %52 = tail call ptr @realloc(ptr noundef nonnull %48, i64 noundef %50) #19
  br label %55

53:                                               ; preds = %45
  %54 = tail call noalias ptr @malloc(i64 noundef %50) #20
  br label %55

55:                                               ; preds = %53, %51
  %56 = phi ptr [ %52, %51 ], [ %54, %53 ]
  store ptr %56, ptr %47, align 8
  store i32 %46, ptr %30, align 8
  br label %Vec_PtrPush.exit

Vec_PtrPush.exit:                                 ; preds = %.Vec_PtrGrow.exit11_crit_edge.i, %Vec_PtrGrow.exit.i, %55
  %57 = phi ptr [ %.pre.i, %.Vec_PtrGrow.exit11_crit_edge.i ], [ %56, %55 ], [ %44, %Vec_PtrGrow.exit.i ]
  %58 = load i32, ptr %31, align 4
  %59 = add nsw i32 %58, 1
  store i32 %59, ptr %31, align 4
  %60 = sext i32 %58 to i64
  %61 = getelementptr inbounds ptr, ptr %57, i64 %60
  store ptr %2, ptr %61, align 8
  ret void
}